; Function Attrs: nounwind uwtable
define internal fastcc void @cpool_close_and_destroy(ptr noundef readonly %0, ptr noundef %1, ptr noundef %2, i1 noundef zeroext %3) unnamed_addr #0 {
  %5 = alloca i8, align 1
  call void @llvm.lifetime.start.p0(i64 1, ptr nonnull %5) #8
  %.not = icmp eq ptr %2, null
  br i1 %.not, label %6, label %9

6:                                                ; preds = %4
  %7 = getelementptr inbounds nuw i8, ptr %0, i64 120
  %8 = load ptr, ptr %7, align 8, !tbaa !3
  br label %9

9:                                                ; preds = %4, %6
  %.0 = phi ptr [ %2, %4 ], [ %8, %6 ]
  tail call void @Curl_attach_connection(ptr noundef %.0, ptr noundef %1) #8
  %10 = getelementptr inbounds nuw i8, ptr %1, i64 952
  %11 = load i64, ptr %10, align 8
  %12 = and i64 %11, 2147483648
  %.not.i = icmp eq i64 %12, 0
  br i1 %.not.i, label %13, label %cpool_run_conn_shutdown_handler.exit

13:                                               ; preds = %9
  %14 = getelementptr inbounds nuw i8, ptr %1, i64 72
  %15 = load ptr, ptr %14, align 8, !tbaa !147
  %.not14.i = icmp eq ptr %15, null
  br i1 %.not14.i, label %17, label %16

16:                                               ; preds = %13
  tail call void @Curl_resolv_unlink(ptr noundef %.0, ptr noundef nonnull %14) #8
  br label %17

17:                                               ; preds = %16, %13
  tail call void @Curl_http_auth_cleanup_ntlm(ptr noundef nonnull %1) #8
  %18 = getelementptr inbounds nuw i8, ptr %1, i64 960
  %19 = load ptr, ptr %18, align 8, !tbaa !148
  %.not15.i = icmp eq ptr %19, null
  br i1 %.not15.i, label %28, label %20

20:                                               ; preds = %17
  %21 = getelementptr inbounds nuw i8, ptr %19, i64 96
  %22 = load ptr, ptr %21, align 8, !tbaa !149
  %.not16.i = icmp eq ptr %22, null
  br i1 %.not16.i, label %28, label %23

23:                                               ; preds = %20
  %24 = load i64, ptr %10, align 8
  %25 = and i64 %24, 1073741824
  %26 = icmp ne i64 %25, 0
  %27 = tail call i32 %22(ptr noundef %.0, ptr noundef nonnull %1, i1 noundef zeroext %26) #8
  br label %28

28:                                               ; preds = %23, %20, %17
  tail call void @Curl_resolver_cancel(ptr noundef %.0) #8
  %29 = load i64, ptr %10, align 8
  %30 = or i64 %29, 2147483648
  store i64 %30, ptr %10, align 8
  br label %cpool_run_conn_shutdown_handler.exit

cpool_run_conn_shutdown_handler.exit:             ; preds = %9, %28
  br i1 %3, label %31, label %32

31:                                               ; preds = %cpool_run_conn_shutdown_handler.exit
  call fastcc void @cpool_run_conn_shutdown(ptr noundef %.0, ptr noundef nonnull %1, ptr noundef %5)
  br label %32

32:                                               ; preds = %31, %cpool_run_conn_shutdown_handler.exit
  tail call void @Curl_conn_close(ptr noundef %.0, i32 noundef 1) #8
  tail call void @Curl_conn_close(ptr noundef %.0, i32 noundef 0) #8
  tail call void @Curl_detach_connection(ptr noundef %.0) #8
  tail call void @Curl_conn_free(ptr noundef %.0, ptr noundef nonnull %1) #8
  %.not20 = icmp eq ptr %0, null
  br i1 %.not20, label %37, label %33

33:                                               ; preds = %32
  %34 = getelementptr inbounds nuw i8, ptr %0, i64 128
  %35 = load ptr, ptr %34, align 8, !tbaa !19
  %.not21 = icmp eq ptr %35, null
  br i1 %.not21, label %37, label %36

36:                                               ; preds = %33
  tail call void @Curl_multi_connchanged(ptr noundef nonnull %35) #8
  br label %37

37:                                               ; preds = %36, %33, %32
  call void @llvm.lifetime.end.p0(i64 1, ptr nonnull %5) #8
  ret void
}